; Function Attrs: mustprogress uwtable
define ptr @ufmtval_getString_77(ptr noundef readonly %0, ptr noundef writeonly %1, ptr noundef %2) local_unnamed_addr #1 personality ptr @__gxx_personality_v0 {
  %4 = alloca %"class.icu_77::UnicodeString", align 8
  %5 = load i32, ptr %2, align 4, !tbaa !13
  %6 = icmp slt i32 %5, 1
  br i1 %6, label %7, label %_ZN6icu_7713IcuCApiHelperI15UFormattedValueNS_19UFormattedValueImplELi1430672896EE8validateEPKS1_R10UErrorCode.exit.thread

7:                                                ; preds = %3
  %8 = icmp eq ptr %0, null
  br i1 %8, label %.sink.split.i, label %9

9:                                                ; preds = %7
  %10 = load i32, ptr %0, align 4, !tbaa !25
  %.not9.i = icmp eq i32 %10, 1430672896
  br i1 %.not9.i, label %_ZN6icu_7713IcuCApiHelperI15UFormattedValueNS_19UFormattedValueImplELi1430672896EE8validateEPKS1_R10UErrorCode.exit, label %.sink.split.i

.sink.split.i:                                    ; preds = %9, %7
  %.sink.i = phi i32 [ 1, %7 ], [ 3, %9 ]
  store i32 %.sink.i, ptr %2, align 4, !tbaa !13
  br label %_ZN6icu_7713IcuCApiHelperI15UFormattedValueNS_19UFormattedValueImplELi1430672896EE8validateEPKS1_R10UErrorCode.exit.thread

_ZN6icu_7713IcuCApiHelperI15UFormattedValueNS_19UFormattedValueImplELi1430672896EE8validateEPKS1_R10UErrorCode.exit: ; preds = %9
  call void @llvm.lifetime.start.p0(i64 64, ptr nonnull %4) #20
  %11 = getelementptr inbounds nuw i8, ptr %0, i64 8
  %12 = load ptr, ptr %11, align 8, !tbaa !27
  %13 = load ptr, ptr %12, align 8, !tbaa !30
  %14 = getelementptr inbounds nuw i8, ptr %13, i64 24
  %15 = load ptr, ptr %14, align 8
  call void %15(ptr dead_on_unwind nonnull writable sret(%"class.icu_77::UnicodeString") align 8 %4, ptr noundef nonnull align 8 dereferenceable(8) %12, ptr noundef nonnull align 4 dereferenceable(4) %2)
  %16 = load i32, ptr %2, align 4, !tbaa !13
  %17 = icmp slt i32 %16, 1
  br i1 %17, label %18, label %_ZNK6icu_7713UnicodeString9getBufferEv.exit

18:                                               ; preds = %_ZN6icu_7713IcuCApiHelperI15UFormattedValueNS_19UFormattedValueImplELi1430672896EE8validateEPKS1_R10UErrorCode.exit
  %.not12 = icmp eq ptr %1, null
  %.phi.trans.insert = getelementptr inbounds nuw i8, ptr %4, i64 8
  %.pre = load i16, ptr %.phi.trans.insert, align 8, !tbaa !32
  br i1 %.not12, label %._crit_edge, label %19

19:                                               ; preds = %18
  %20 = icmp slt i16 %.pre, 0
  %21 = ashr i16 %.pre, 5
  %22 = sext i16 %21 to i32
  %23 = getelementptr inbounds nuw i8, ptr %4, i64 12
  %24 = load i32, ptr %23, align 4
  %25 = select i1 %20, i32 %24, i32 %22
  store i32 %25, ptr %1, align 4, !tbaa !12
  br label %._crit_edge

._crit_edge:                                      ; preds = %18, %19
  %26 = and i16 %.pre, 17
  %.not.i = icmp eq i16 %26, 0
  br i1 %.not.i, label %27, label %_ZNK6icu_7713UnicodeString9getBufferEv.exit

27:                                               ; preds = %._crit_edge
  %28 = and i16 %.pre, 2
  %.not2.i = icmp eq i16 %28, 0
  br i1 %.not2.i, label %31, label %29

29:                                               ; preds = %27
  %30 = getelementptr inbounds nuw i8, ptr %4, i64 10
  br label %_ZNK6icu_7713UnicodeString9getBufferEv.exit

31:                                               ; preds = %27
  %32 = getelementptr inbounds nuw i8, ptr %4, i64 24
  %33 = load ptr, ptr %32, align 8, !tbaa !32
  br label %_ZNK6icu_7713UnicodeString9getBufferEv.exit

_ZNK6icu_7713UnicodeString9getBufferEv.exit:      ; preds = %31, %29, %._crit_edge, %_ZN6icu_7713IcuCApiHelperI15UFormattedValueNS_19UFormattedValueImplELi1430672896EE8validateEPKS1_R10UErrorCode.exit
  %.1 = phi ptr [ null, %_ZN6icu_7713IcuCApiHelperI15UFormattedValueNS_19UFormattedValueImplELi1430672896EE8validateEPKS1_R10UErrorCode.exit ], [ %30, %29 ], [ %33, %31 ], [ null, %._crit_edge ]
  call void @_ZN6icu_7713UnicodeStringD1Ev(ptr noundef nonnull align 8 dereferenceable(64) %4) #20
  call void @llvm.lifetime.end.p0(i64 64, ptr nonnull %4) #20
  br label %_ZN6icu_7713IcuCApiHelperI15UFormattedValueNS_19UFormattedValueImplELi1430672896EE8validateEPKS1_R10UErrorCode.exit.thread

_ZN6icu_7713IcuCApiHelperI15UFormattedValueNS_19UFormattedValueImplELi1430672896EE8validateEPKS1_R10UErrorCode.exit.thread: ; preds = %.sink.split.i, %3, %_ZNK6icu_7713UnicodeString9getBufferEv.exit
  %.0 = phi ptr [ %.1, %_ZNK6icu_7713UnicodeString9getBufferEv.exit ], [ null, %3 ], [ null, %.sink.split.i ]
  ret ptr %.0
}